target datalayout = "e-m:e-p270:32:32-p271:32:32-p272:64:64-i64:64-i128:128-f80:128-n8:16:32:64-S128"
target triple = "x86_64-pc-linux-gnu"

%struct._typeobject = type { %struct.PyVarObject, ptr, i64, i64, ptr, i64, ptr, ptr, ptr, ptr, ptr, ptr, ptr, ptr, ptr, ptr, ptr, ptr, ptr, i64, ptr, ptr, ptr, ptr, i64, ptr, ptr, ptr, ptr, ptr, ptr, ptr, ptr, ptr, i64, ptr, ptr, ptr, ptr, ptr, ptr, ptr, ptr, ptr, ptr, ptr, i32, ptr, ptr, i8, i16 }
%struct.PyVarObject = type { %struct._object, i64 }
%struct._object = type { %union.anon, ptr }
%union.anon = type { i64 }
%struct.PyWideStringList = type { i64, ptr }
%struct.PyConfig = type { i32, i32, i32, i32, i32, i32, i64, i32, i32, i32, i32, i32, i32, i32, ptr, i32, ptr, ptr, ptr, i32, %struct.PyWideStringList, %struct.PyWideStringList, %struct.PyWideStringList, %struct.PyWideStringList, i32, i32, i32, i32, i32, i32, i32, i32, i32, i32, i32, i32, i32, ptr, ptr, ptr, i32, i32, i32, i32, i32, ptr, ptr, ptr, ptr, i32, %struct.PyWideStringList, ptr, ptr, ptr, ptr, ptr, ptr, ptr, i32, ptr, ptr, ptr, ptr, i32, i32, i32 }
%struct.PyModuleObject = type { %struct._object, ptr, ptr, ptr, ptr, ptr }
%struct.PyModuleDef = type { %struct.PyModuleDef_Base, ptr, ptr, i64, ptr, ptr, ptr, ptr, ptr }
%struct.PyModuleDef_Base = type { %struct._object, ptr, i64, ptr }
%struct.anon = type { i32, i32 }

@.str.36 = private unnamed_addr constant [14 x i8] c"# destroy %U\0A\00", align 1

; Function Attrs: alwaysinline nounwind uwtable
define internal i32 @_Py_IsImmortal(ptr noundef %0) #4 {
  %2 = alloca ptr, align 8
  store ptr %0, ptr %2, align 8, !tbaa !4
  %3 = load ptr, ptr %2, align 8, !tbaa !4
  %4 = getelementptr inbounds nuw %struct._object, ptr %3, i32 0, i32 0
  %5 = getelementptr inbounds nuw %struct.anon, ptr %4, i32 0, i32 0
  %6 = load i32, ptr %5, align 8, !tbaa !26
  %7 = icmp slt i32 %6, 0
  %8 = zext i1 %7 to i32
  ret i32 %8
}

; Function Attrs: alwaysinline nounwind uwtable
define internal void @Py_DECREF(ptr noundef %0) #4 {
  %2 = alloca ptr, align 8
  store ptr %0, ptr %2, align 8, !tbaa !4
  %3 = load ptr, ptr %2, align 8, !tbaa !4
  %4 = call i32 @_Py_IsImmortal(ptr noundef %3)
  %5 = icmp ne i32 %4, 0
  br i1 %5, label %6, label %7

6:                                                ; preds = %1
  br label %16

7:                                                ; preds = %1
  %8 = load ptr, ptr %2, align 8, !tbaa !4
  %9 = getelementptr inbounds nuw %struct._object, ptr %8, i32 0, i32 0
  %10 = getelementptr inbounds nuw %struct.anon, ptr %9, i32 0, i32 0
  %11 = load i32, ptr %10, align 8, !tbaa !26
  %12 = add i32 %11, -1
  store i32 %12, ptr %10, align 8, !tbaa !26
  %13 = icmp eq i32 %12, 0
  br i1 %13, label %14, label %16

14:                                               ; preds = %7
  %15 = load ptr, ptr %2, align 8, !tbaa !4
  call void @_Py_Dealloc(ptr noundef %15)
  br label %16

16:                                               ; preds = %6, %14, %7
  ret void
}

; Function Attrs: inlinehint nounwind uwtable
define internal ptr @_Py_TYPE(ptr noundef %0) #1 {
  %2 = alloca ptr, align 8
  store ptr %0, ptr %2, align 8, !tbaa !4
  %3 = load ptr, ptr %2, align 8, !tbaa !4
  %4 = getelementptr inbounds nuw %struct._object, ptr %3, i32 0, i32 1
  %5 = load ptr, ptr %4, align 8, !tbaa !27
  ret ptr %5
}

; Function Attrs: inlinehint nounwind uwtable
define internal void @Py_XDECREF(ptr noundef %0) #1 {
  %2 = alloca ptr, align 8
  store ptr %0, ptr %2, align 8, !tbaa !4
  %3 = load ptr, ptr %2, align 8, !tbaa !4
  %4 = icmp ne ptr %3, null
  br i1 %4, label %5, label %7

5:                                                ; preds = %1
  %6 = load ptr, ptr %2, align 8, !tbaa !4
  call void @Py_DECREF(ptr noundef %6)
  br label %7

7:                                                ; preds = %5, %1
  ret void
}

; Function Attrs: nounwind uwtable
define internal void @module_dealloc(ptr noundef %0) #0 {
  %2 = alloca ptr, align 8
  %3 = alloca ptr, align 8
  %4 = alloca i32, align 4
  store ptr %0, ptr %2, align 8, !tbaa !4
  call void @llvm.lifetime.start.p0(i64 8, ptr %3) #9
  %5 = load ptr, ptr %2, align 8, !tbaa !4
  store ptr %5, ptr %3, align 8, !tbaa !9
  %6 = load ptr, ptr %3, align 8, !tbaa !9
  call void @PyObject_GC_UnTrack(ptr noundef %6)
  call void @llvm.lifetime.start.p0(i64 4, ptr %4) #9
  %7 = call ptr @_Py_GetConfig()
  %8 = getelementptr inbounds nuw %struct.PyConfig, ptr %7, i32 0, i32 32
  %9 = load i32, ptr %8, align 8, !tbaa !142
  store i32 %9, ptr %4, align 4, !tbaa !35
  %10 = load i32, ptr %4, align 4, !tbaa !35
  %11 = icmp ne i32 %10, 0
  br i1 %11, label %12, label %21

12:                                               ; preds = %1
  %13 = load ptr, ptr %3, align 8, !tbaa !9
  %14 = getelementptr inbounds nuw %struct.PyModuleObject, ptr %13, i32 0, i32 5
  %15 = load ptr, ptr %14, align 8, !tbaa !31
  %16 = icmp ne ptr %15, null
  br i1 %16, label %17, label %21

17:                                               ; preds = %12
  %18 = load ptr, ptr %3, align 8, !tbaa !9
  %19 = getelementptr inbounds nuw %struct.PyModuleObject, ptr %18, i32 0, i32 5
  %20 = load ptr, ptr %19, align 8, !tbaa !31
  call void (ptr, ...) @PySys_FormatStderr(ptr noundef @.str.36, ptr noundef %20)
  br label %21

21:                                               ; preds = %17, %12, %1
  %22 = load ptr, ptr %3, align 8, !tbaa !9
  %23 = getelementptr inbounds nuw %struct.PyModuleObject, ptr %22, i32 0, i32 4
  %24 = load ptr, ptr %23, align 8, !tbaa !30
  %25 = icmp ne ptr %24, null
  br i1 %25, label %26, label %28

26:                                               ; preds = %21
  %27 = load ptr, ptr %3, align 8, !tbaa !9
  call void @PyObject_ClearWeakRefs(ptr noundef %27)
  br label %28

28:                                               ; preds = %26, %21
  %29 = load ptr, ptr %3, align 8, !tbaa !9
  %30 = getelementptr inbounds nuw %struct.PyModuleObject, ptr %29, i32 0, i32 2
  %31 = load ptr, ptr %30, align 8, !tbaa !10
  %32 = icmp ne ptr %31, null
  br i1 %32, label %33, label %59

33:                                               ; preds = %28
  %34 = load ptr, ptr %3, align 8, !tbaa !9
  %35 = getelementptr inbounds nuw %struct.PyModuleObject, ptr %34, i32 0, i32 2
  %36 = load ptr, ptr %35, align 8, !tbaa !10
  %37 = getelementptr inbounds nuw %struct.PyModuleDef, ptr %36, i32 0, i32 8
  %38 = load ptr, ptr %37, align 8, !tbaa !130
  %39 = icmp ne ptr %38, null
  br i1 %39, label %40, label %59

40:                                               ; preds = %33
  %41 = load ptr, ptr %3, align 8, !tbaa !9
  %42 = getelementptr inbounds nuw %struct.PyModuleObject, ptr %41, i32 0, i32 2
  %43 = load ptr, ptr %42, align 8, !tbaa !10
  %44 = getelementptr inbounds nuw %struct.PyModuleDef, ptr %43, i32 0, i32 3
  %45 = load i64, ptr %44, align 8, !tbaa !49
  %46 = icmp sle i64 %45, 0
  br i1 %46, label %52, label %47

47:                                               ; preds = %40
  %48 = load ptr, ptr %3, align 8, !tbaa !9
  %49 = getelementptr inbounds nuw %struct.PyModuleObject, ptr %48, i32 0, i32 3
  %50 = load ptr, ptr %49, align 8, !tbaa !29
  %51 = icmp ne ptr %50, null
  br i1 %51, label %52, label %59

52:                                               ; preds = %47, %40
  %53 = load ptr, ptr %3, align 8, !tbaa !9
  %54 = getelementptr inbounds nuw %struct.PyModuleObject, ptr %53, i32 0, i32 2
  %55 = load ptr, ptr %54, align 8, !tbaa !10
  %56 = getelementptr inbounds nuw %struct.PyModuleDef, ptr %55, i32 0, i32 8
  %57 = load ptr, ptr %56, align 8, !tbaa !130
  %58 = load ptr, ptr %3, align 8, !tbaa !9
  call void %57(ptr noundef %58)
  br label %59

59:                                               ; preds = %52, %47, %33, %28
  %60 = load ptr, ptr %3, align 8, !tbaa !9
  %61 = getelementptr inbounds nuw %struct.PyModuleObject, ptr %60, i32 0, i32 1
  %62 = load ptr, ptr %61, align 8, !tbaa !28
  call void @Py_XDECREF(ptr noundef %62)
  %63 = load ptr, ptr %3, align 8, !tbaa !9
  %64 = getelementptr inbounds nuw %struct.PyModuleObject, ptr %63, i32 0, i32 5
  %65 = load ptr, ptr %64, align 8, !tbaa !31
  call void @Py_XDECREF(ptr noundef %65)
  %66 = load ptr, ptr %3, align 8, !tbaa !9
  %67 = getelementptr inbounds nuw %struct.PyModuleObject, ptr %66, i32 0, i32 3
  %68 = load ptr, ptr %67, align 8, !tbaa !29
  %69 = icmp ne ptr %68, null
  br i1 %69, label %70, label %74

70:                                               ; preds = %59
  %71 = load ptr, ptr %3, align 8, !tbaa !9
  %72 = getelementptr inbounds nuw %struct.PyModuleObject, ptr %71, i32 0, i32 3
  %73 = load ptr, ptr %72, align 8, !tbaa !29
  call void @PyMem_Free(ptr noundef %73)
  br label %74

74:                                               ; preds = %70, %59
  %75 = load ptr, ptr %3, align 8, !tbaa !9
  %76 = call ptr @_Py_TYPE(ptr noundef %75)
  %77 = getelementptr inbounds nuw %struct._typeobject, ptr %76, i32 0, i32 38
  %78 = load ptr, ptr %77, align 8, !tbaa !151
  %79 = load ptr, ptr %3, align 8, !tbaa !9
  call void %78(ptr noundef %79)
  call void @llvm.lifetime.end.p0(i64 4, ptr %4) #9
  call void @llvm.lifetime.end.p0(i64 8, ptr %3) #9
  ret void
}