; Function Attrs: nounwind uwtable
define internal void @module_dealloc(ptr noundef %0) #0 {
  tail call void @PyObject_GC_UnTrack(ptr noundef %0) #8
  %2 = tail call ptr @_Py_GetConfig() #8
  %3 = getelementptr inbounds nuw i8, ptr %2, i64 208
  %4 = load i32, ptr %3, align 8, !tbaa !213
  %.not = icmp eq i32 %4, 0
  br i1 %.not, label %9, label %5

5:                                                ; preds = %1
  %6 = getelementptr inbounds nuw i8, ptr %0, i64 48
  %7 = load ptr, ptr %6, align 8, !tbaa !221
  %.not20 = icmp eq ptr %7, null
  br i1 %.not20, label %9, label %8

8:                                                ; preds = %5
  tail call void (ptr, ...) @PySys_FormatStderr(ptr noundef nonnull @.str.36, ptr noundef nonnull %7) #8
  br label %9

9:                                                ; preds = %8, %5, %1
  %10 = getelementptr inbounds nuw i8, ptr %0, i64 40
  %11 = load ptr, ptr %10, align 8, !tbaa !222
  %.not21 = icmp eq ptr %11, null
  br i1 %.not21, label %13, label %12

12:                                               ; preds = %9
  tail call void @PyObject_ClearWeakRefs(ptr noundef nonnull %0) #8
  br label %13

13:                                               ; preds = %12, %9
  %14 = getelementptr inbounds nuw i8, ptr %0, i64 24
  %15 = load ptr, ptr %14, align 8, !tbaa !10
  %.not22 = icmp eq ptr %15, null
  br i1 %.not22, label %27, label %16

16:                                               ; preds = %13
  %17 = getelementptr inbounds nuw i8, ptr %15, i64 96
  %18 = load ptr, ptr %17, align 8, !tbaa !203
  %.not23 = icmp eq ptr %18, null
  br i1 %.not23, label %27, label %19

19:                                               ; preds = %16
  %20 = getelementptr inbounds nuw i8, ptr %15, i64 56
  %21 = load i64, ptr %20, align 8, !tbaa !39
  %22 = icmp slt i64 %21, 1
  br i1 %22, label %26, label %23

23:                                               ; preds = %19
  %24 = getelementptr inbounds nuw i8, ptr %0, i64 32
  %25 = load ptr, ptr %24, align 8, !tbaa !40
  %.not24 = icmp eq ptr %25, null
  br i1 %.not24, label %27, label %26

26:                                               ; preds = %23, %19
  tail call void %18(ptr noundef nonnull %0) #8
  br label %27

27:                                               ; preds = %26, %23, %16, %13
  %28 = getelementptr inbounds nuw i8, ptr %0, i64 16
  %29 = load ptr, ptr %28, align 8, !tbaa !23
  %.not.i = icmp eq ptr %29, null
  br i1 %.not.i, label %Py_XDECREF.exit, label %30

30:                                               ; preds = %27
  %31 = load i32, ptr %29, align 8, !tbaa !22
  %.not.i.i = icmp sgt i32 %31, -1
  br i1 %.not.i.i, label %32, label %Py_XDECREF.exit

32:                                               ; preds = %30
  %33 = add nsw i32 %31, -1
  store i32 %33, ptr %29, align 8, !tbaa !22
  %34 = icmp eq i32 %33, 0
  br i1 %34, label %35, label %Py_XDECREF.exit

35:                                               ; preds = %32
  tail call void @_Py_Dealloc(ptr noundef nonnull %29) #8
  br label %Py_XDECREF.exit

Py_XDECREF.exit:                                  ; preds = %27, %30, %32, %35
  %36 = getelementptr inbounds nuw i8, ptr %0, i64 48
  %37 = load ptr, ptr %36, align 8, !tbaa !221
  %.not.i26 = icmp eq ptr %37, null
  br i1 %.not.i26, label %Py_XDECREF.exit28, label %38

38:                                               ; preds = %Py_XDECREF.exit
  %39 = load i32, ptr %37, align 8, !tbaa !22
  %.not.i.i27 = icmp sgt i32 %39, -1
  br i1 %.not.i.i27, label %40, label %Py_XDECREF.exit28

40:                                               ; preds = %38
  %41 = add nsw i32 %39, -1
  store i32 %41, ptr %37, align 8, !tbaa !22
  %42 = icmp eq i32 %41, 0
  br i1 %42, label %43, label %Py_XDECREF.exit28

43:                                               ; preds = %40
  tail call void @_Py_Dealloc(ptr noundef nonnull %37) #8
  br label %Py_XDECREF.exit28

Py_XDECREF.exit28:                                ; preds = %Py_XDECREF.exit, %38, %40, %43
  %44 = getelementptr inbounds nuw i8, ptr %0, i64 32
  %45 = load ptr, ptr %44, align 8, !tbaa !40
  %.not25 = icmp eq ptr %45, null
  br i1 %.not25, label %47, label %46

46:                                               ; preds = %Py_XDECREF.exit28
  tail call void @PyMem_Free(ptr noundef nonnull %45) #8
  br label %47

47:                                               ; preds = %46, %Py_XDECREF.exit28
  %48 = getelementptr i8, ptr %0, i64 8
  %.val = load ptr, ptr %48, align 8, !tbaa !4
  %49 = getelementptr inbounds nuw i8, ptr %.val, i64 320
  %50 = load ptr, ptr %49, align 8, !tbaa !223
  tail call void %50(ptr noundef nonnull %0) #8
  ret void
}